; Function Attrs: mustprogress nounwind uwtable
define hidden noundef zeroext i1 @_ZN6hermes3sem17SemanticValidator4doItEPNS_6ESTree4NodeE(ptr noundef nonnull align 8 dereferenceable(168) %this, ptr noundef %rootNode) local_unnamed_addr #0 align 2 {
entry:
  %call.i = tail call { ptr, i8 } @_ZN6hermes6ESTree24RecursiveVisitorDispatchINS_3sem17SemanticValidatorELb1EE5visitERS3_PNS0_4NodeES7_(ptr noundef nonnull align 8 dereferenceable(168) %this, ptr noundef %rootNode, ptr noundef null)
  %sm_ = getelementptr inbounds nuw i8, ptr %this, i64 8
  %0 = load ptr, ptr %sm_, align 8
  %messageCount_.i.i = getelementptr inbounds nuw i8, ptr %0, i64 296
  %1 = load i32, ptr %messageCount_.i.i, align 4
  %initialErrorCount_ = getelementptr inbounds nuw i8, ptr %this, i64 32
  %2 = load i32, ptr %initialErrorCount_, align 8
  %cmp = icmp eq i32 %1, %2
  ret i1 %cmp
}